target datalayout = "e-m:e-p270:32:32-p271:32:32-p272:64:64-i64:64-i128:128-f80:128-n8:16:32:64-S128"
target triple = "x86_64-pc-linux-gnu"

@glad_glBufferData = external global ptr, align 8
@glad_glVertexAttribPointer = external global ptr, align 8

; Function Attrs: mustprogress uwtable
define dso_local void @_ZN3igl6opengl31bind_vertex_attrib_array_helperIfEEviiiPKT_b(i32 noundef %0, i32 noundef %1, i32 noundef %2, ptr noundef %3, i1 noundef zeroext %4) #3 {
  %6 = alloca i32, align 4
  %7 = alloca i32, align 4
  %8 = alloca i32, align 4
  %9 = alloca ptr, align 8
  %10 = alloca i8, align 1
  store i32 %0, ptr %6, align 4, !tbaa !15
  store i32 %1, ptr %7, align 4, !tbaa !15
  store i32 %2, ptr %8, align 4, !tbaa !15
  store ptr %3, ptr %9, align 8, !tbaa !17
  %11 = zext i1 %4 to i8
  store i8 %11, ptr %10, align 1, !tbaa !19
  %12 = load i8, ptr %10, align 1, !tbaa !19, !range !21, !noundef !22
  %13 = trunc i8 %12 to i1
  br i1 %13, label %14, label %20

14:                                               ; preds = %5
  %15 = load ptr, ptr @glad_glBufferData, align 8, !tbaa !23
  %16 = load i32, ptr %7, align 4, !tbaa !15
  %17 = sext i32 %16 to i64
  %18 = mul i64 4, %17
  %19 = load ptr, ptr %9, align 8, !tbaa !17
  call void %15(i32 noundef 34962, i64 noundef %18, ptr noundef %19, i32 noundef 35048)
  br label %20

20:                                               ; preds = %14, %5
  %21 = load ptr, ptr @glad_glVertexAttribPointer, align 8, !tbaa !23
  %22 = load i32, ptr %6, align 4, !tbaa !15
  %23 = load i32, ptr %8, align 4, !tbaa !15
  call void %21(i32 noundef %22, i32 noundef %23, i32 noundef 5126, i8 noundef zeroext 0, i32 noundef 0, ptr noundef null)
  ret void
}